target datalayout = "e-m:e-p270:32:32-p271:32:32-p272:64:64-i64:64-i128:128-f80:128-n8:16:32:64-S128"
target triple = "x86_64-pc-linux-gnu"

%class.VerificationType = type { %union.anon }
%union.anon = type { ptr }
%class.StackMapFrame = type { i32, i32, i32, i32, i16, i16, i8, ptr, ptr, ptr }
%class.ErrorContext = type { i32, i32, %class.TypeOrigin, %class.TypeOrigin }
%class.TypeOrigin = type { i32, i32, ptr, %class.VerificationType }
%class.ThreadShadow = type <{ ptr, ptr, ptr, i32, [4 x i8] }>

@.str.7 = private unnamed_addr constant [24 x i8] c"Bad local variable type\00", align 1
@.str.8 = private unnamed_addr constant [33 x i8] c"get long/double overflows locals\00", align 1

; Function Attrs: mustprogress nounwind uwtable
define linkonce_odr hidden void @_ZN16VerificationTypeC2Em(ptr noundef nonnull align 8 dereferenceable(8) %0, i64 noundef %1) unnamed_addr #1 comdat align 2 {
  %3 = alloca ptr, align 8
  %4 = alloca i64, align 8
  store ptr %0, ptr %3, align 8
  store i64 %1, ptr %4, align 8
  %5 = load ptr, ptr %3, align 8
  %6 = load i64, ptr %4, align 8
  %7 = getelementptr inbounds %class.VerificationType, ptr %5, i32 0, i32 0
  store i64 %6, ptr %7, align 8
  ret void
}

; Function Attrs: mustprogress nounwind uwtable
define linkonce_odr hidden ptr @_ZN16VerificationType10bogus_typeEv() #1 comdat align 2 {
  %1 = alloca %class.VerificationType, align 8
  call void @_ZN16VerificationTypeC2Em(ptr noundef nonnull align 8 dereferenceable(8) %1, i64 noundef 4294901761)
  %2 = getelementptr inbounds %class.VerificationType, ptr %1, i32 0, i32 0
  %3 = getelementptr inbounds %union.anon, ptr %2, i32 0, i32 0
  %4 = load ptr, ptr %3, align 8
  ret ptr %4
}

; Function Attrs: mustprogress nounwind uwtable
define linkonce_odr hidden void @_ZN16VerificationTypeC2Ev(ptr noundef nonnull align 8 dereferenceable(8) %0) unnamed_addr #1 comdat align 2 {
  %2 = alloca ptr, align 8
  %3 = alloca %class.VerificationType, align 8
  store ptr %0, ptr %2, align 8
  %4 = load ptr, ptr %2, align 8
  %5 = call ptr @_ZN16VerificationType10bogus_typeEv()
  %6 = getelementptr inbounds %class.VerificationType, ptr %3, i32 0, i32 0
  %7 = getelementptr inbounds %union.anon, ptr %6, i32 0, i32 0
  store ptr %5, ptr %7, align 8
  call void @llvm.memcpy.p0.p0.i64(ptr align 8 %4, ptr align 8 %3, i64 8, i1 false)
  ret void
}

; Function Attrs: mustprogress nounwind uwtable
define linkonce_odr hidden void @_ZN10TypeOriginC2Ev(ptr noundef nonnull align 8 dereferenceable(24) %0) unnamed_addr #1 comdat align 2 {
  %2 = alloca ptr, align 8
  store ptr %0, ptr %2, align 8
  %3 = load ptr, ptr %2, align 8
  %4 = getelementptr inbounds %class.TypeOrigin, ptr %3, i32 0, i32 0
  store i32 9, ptr %4, align 8
  %5 = getelementptr inbounds %class.TypeOrigin, ptr %3, i32 0, i32 1
  store i32 0, ptr %5, align 4
  %6 = getelementptr inbounds %class.TypeOrigin, ptr %3, i32 0, i32 2
  store ptr null, ptr %6, align 8
  %7 = getelementptr inbounds %class.TypeOrigin, ptr %3, i32 0, i32 3
  call void @_ZN16VerificationTypeC2Ev(ptr noundef nonnull align 8 dereferenceable(8) %7)
  ret void
}

; Function Attrs: mustprogress nounwind uwtable
define linkonce_odr hidden void @_ZN12ErrorContextC2EiNS_9FaultTypeE10TypeOriginS1_(ptr noundef nonnull align 8 dereferenceable(56) %0, i32 noundef %1, i32 noundef %2, ptr noundef byval(%class.TypeOrigin) align 8 %3, ptr noundef byval(%class.TypeOrigin) align 8 %4) unnamed_addr #1 comdat align 2 {
  %6 = alloca ptr, align 8
  %7 = alloca i32, align 4
  %8 = alloca i32, align 4
  store ptr %0, ptr %6, align 8
  store i32 %1, ptr %7, align 4
  store i32 %2, ptr %8, align 4
  %9 = load ptr, ptr %6, align 8
  %10 = getelementptr inbounds %class.ErrorContext, ptr %9, i32 0, i32 0
  %11 = load i32, ptr %7, align 4
  store i32 %11, ptr %10, align 8
  %12 = getelementptr inbounds %class.ErrorContext, ptr %9, i32 0, i32 1
  %13 = load i32, ptr %8, align 4
  store i32 %13, ptr %12, align 4
  %14 = getelementptr inbounds %class.ErrorContext, ptr %9, i32 0, i32 2
  call void @llvm.memcpy.p0.p0.i64(ptr align 8 %14, ptr align 8 %3, i64 24, i1 false)
  %15 = getelementptr inbounds %class.ErrorContext, ptr %9, i32 0, i32 3
  call void @llvm.memcpy.p0.p0.i64(ptr align 8 %15, ptr align 8 %4, i64 24, i1 false)
  ret void
}

; Function Attrs: mustprogress nounwind uwtable
define linkonce_odr hidden void @_ZN12ErrorContextC2EiNS_9FaultTypeE10TypeOrigin(ptr noundef nonnull align 8 dereferenceable(56) %0, i32 noundef %1, i32 noundef %2, ptr noundef byval(%class.TypeOrigin) align 8 %3) unnamed_addr #1 comdat align 2 {
  %5 = alloca ptr, align 8
  %6 = alloca i32, align 4
  %7 = alloca i32, align 4
  store ptr %0, ptr %5, align 8
  store i32 %1, ptr %6, align 4
  store i32 %2, ptr %7, align 4
  %8 = load ptr, ptr %5, align 8
  %9 = getelementptr inbounds %class.ErrorContext, ptr %8, i32 0, i32 0
  %10 = load i32, ptr %6, align 4
  store i32 %10, ptr %9, align 8
  %11 = getelementptr inbounds %class.ErrorContext, ptr %8, i32 0, i32 1
  %12 = load i32, ptr %7, align 4
  store i32 %12, ptr %11, align 4
  %13 = getelementptr inbounds %class.ErrorContext, ptr %8, i32 0, i32 2
  call void @llvm.memcpy.p0.p0.i64(ptr align 8 %13, ptr align 8 %3, i64 24, i1 false)
  %14 = getelementptr inbounds %class.ErrorContext, ptr %8, i32 0, i32 3
  call void @_ZN10TypeOriginC2Ev(ptr noundef nonnull align 8 dereferenceable(24) %14)
  ret void
}

; Function Attrs: mustprogress nounwind uwtable
define linkonce_odr hidden void @_ZN12ErrorContext8bad_typeEi10TypeOriginS0_(ptr dead_on_unwind noalias writable sret(%class.ErrorContext) align 8 %0, i32 noundef %1, ptr noundef byval(%class.TypeOrigin) align 8 %2, ptr noundef byval(%class.TypeOrigin) align 8 %3) #1 comdat align 2 {
  %5 = alloca i32, align 4
  %6 = alloca %class.TypeOrigin, align 8
  %7 = alloca %class.TypeOrigin, align 8
  store i32 %1, ptr %5, align 4
  %8 = load i32, ptr %5, align 4
  call void @llvm.memcpy.p0.p0.i64(ptr align 8 %6, ptr align 8 %2, i64 24, i1 false)
  call void @llvm.memcpy.p0.p0.i64(ptr align 8 %7, ptr align 8 %3, i64 24, i1 false)
  call void @_ZN12ErrorContextC2EiNS_9FaultTypeE10TypeOriginS1_(ptr noundef nonnull align 8 dereferenceable(56) %0, i32 noundef %8, i32 noundef 1, ptr noundef byval(%class.TypeOrigin) align 8 %6, ptr noundef byval(%class.TypeOrigin) align 8 %7)
  ret void
}

; Function Attrs: mustprogress nounwind uwtable
define linkonce_odr hidden noundef zeroext i1 @_ZNK12ThreadShadow21has_pending_exceptionEv(ptr noundef nonnull align 8 dereferenceable(28) %0) #1 comdat align 2 {
  %2 = alloca ptr, align 8
  store ptr %0, ptr %2, align 8
  %3 = load ptr, ptr %2, align 8
  %4 = getelementptr inbounds %class.ThreadShadow, ptr %3, i32 0, i32 1
  %5 = load ptr, ptr %4, align 8
  %6 = icmp ne ptr %5, null
  ret i1 %6
}

; Function Attrs: mustprogress nounwind uwtable
define linkonce_odr hidden void @_ZN12ErrorContext15bad_local_indexEii(ptr dead_on_unwind noalias writable sret(%class.ErrorContext) align 8 %0, i32 noundef %1, i32 noundef %2) #1 comdat align 2 {
  %4 = alloca i32, align 4
  %5 = alloca i32, align 4
  %6 = alloca %class.TypeOrigin, align 8
  store i32 %1, ptr %4, align 4
  store i32 %2, ptr %5, align 4
  %7 = load i32, ptr %4, align 4
  %8 = load i32, ptr %5, align 4
  call void @_ZN10TypeOrigin9bad_indexEi(ptr dead_on_unwind writable sret(%class.TypeOrigin) align 8 %6, i32 noundef %8)
  call void @_ZN12ErrorContextC2EiNS_9FaultTypeE10TypeOrigin(ptr noundef nonnull align 8 dereferenceable(56) %0, i32 noundef %7, i32 noundef 4, ptr noundef byval(%class.TypeOrigin) align 8 %6)
  ret void
}

; Function Attrs: mustprogress nounwind uwtable
define linkonce_odr hidden noundef ptr @_ZNK13StackMapFrame8verifierEv(ptr noundef nonnull align 8 dereferenceable(48) %0) #1 comdat align 2 {
  %2 = alloca ptr, align 8
  store ptr %0, ptr %2, align 8
  %3 = load ptr, ptr %2, align 8
  %4 = getelementptr inbounds %class.StackMapFrame, ptr %3, i32 0, i32 9
  %5 = load ptr, ptr %4, align 8
  ret ptr %5
}

; Function Attrs: mustprogress nounwind uwtable
define hidden void @_ZN13StackMapFrame11get_local_2Ei16VerificationTypeS0_P10JavaThread(ptr noundef nonnull align 8 dereferenceable(48) %0, i32 noundef %1, ptr %2, ptr %3, ptr noundef %4) #1 align 2 {
  %6 = alloca %class.VerificationType, align 8
  %7 = alloca %class.VerificationType, align 8
  %8 = alloca ptr, align 8
  %9 = alloca i32, align 4
  %10 = alloca ptr, align 8
  %11 = alloca %class.ErrorContext, align 8
  %12 = alloca i8, align 1
  %13 = alloca %class.ErrorContext, align 8
  %14 = alloca %class.TypeOrigin, align 8
  %15 = alloca %class.TypeOrigin, align 8
  %16 = alloca %class.VerificationType, align 8
  %17 = alloca %class.ErrorContext, align 8
  %18 = alloca %class.TypeOrigin, align 8
  %19 = alloca %class.TypeOrigin, align 8
  %20 = alloca %class.VerificationType, align 8
  %21 = getelementptr inbounds %class.VerificationType, ptr %6, i32 0, i32 0
  %22 = getelementptr inbounds %union.anon, ptr %21, i32 0, i32 0
  store ptr %2, ptr %22, align 8
  %23 = getelementptr inbounds %class.VerificationType, ptr %7, i32 0, i32 0
  %24 = getelementptr inbounds %union.anon, ptr %23, i32 0, i32 0
  store ptr %3, ptr %24, align 8
  store ptr %0, ptr %8, align 8
  store i32 %1, ptr %9, align 4
  store ptr %4, ptr %10, align 8
  %25 = load ptr, ptr %8, align 8
  %26 = load i32, ptr %9, align 4
  %27 = getelementptr inbounds %class.StackMapFrame, ptr %25, i32 0, i32 1
  %28 = load i32, ptr %27, align 4
  %29 = sub nsw i32 %28, 1
  %30 = icmp sge i32 %26, %29
  br i1 %30, label %31, label %36

31:                                               ; preds = %5
  %32 = call noundef ptr @_ZNK13StackMapFrame8verifierEv(ptr noundef nonnull align 8 dereferenceable(48) %25)
  %33 = getelementptr inbounds %class.StackMapFrame, ptr %25, i32 0, i32 0
  %34 = load i32, ptr %33, align 8
  %35 = load i32, ptr %9, align 4
  call void @_ZN12ErrorContext15bad_local_indexEii(ptr dead_on_unwind writable sret(%class.ErrorContext) align 8 %11, i32 noundef %34, i32 noundef %35)
  call void (ptr, ptr, ptr, ...) @_ZN13ClassVerifier12verify_errorE12ErrorContextPKcz(ptr noundef nonnull align 8 dereferenceable(8192) %32, ptr noundef byval(%class.ErrorContext) align 8 %11, ptr noundef @.str.8)
  br label %87

36:                                               ; preds = %5
  %37 = getelementptr inbounds %class.StackMapFrame, ptr %25, i32 0, i32 7
  %38 = load ptr, ptr %37, align 8
  %39 = load i32, ptr %9, align 4
  %40 = sext i32 %39 to i64
  %41 = getelementptr inbounds %class.VerificationType, ptr %38, i64 %40
  %42 = call noundef ptr @_ZNK13StackMapFrame8verifierEv(ptr noundef nonnull align 8 dereferenceable(48) %25)
  %43 = load ptr, ptr %10, align 8
  %44 = call noundef zeroext i1 @_ZNK16VerificationType18is_assignable_fromERKS_P13ClassVerifierbP10JavaThread(ptr noundef nonnull align 8 dereferenceable(8) %6, ptr noundef nonnull align 8 dereferenceable(8) %41, ptr noundef %42, i1 noundef zeroext false, ptr noundef %43)
  %45 = zext i1 %44 to i8
  store i8 %45, ptr %12, align 1
  %46 = load ptr, ptr %10, align 8
  %47 = call noundef zeroext i1 @_ZNK12ThreadShadow21has_pending_exceptionEv(ptr noundef nonnull align 8 dereferenceable(28) %46)
  br i1 %47, label %48, label %49

48:                                               ; preds = %36
  br label %87

49:                                               ; preds = %36
  %50 = load i8, ptr %12, align 1
  %51 = trunc i8 %50 to i1
  br i1 %51, label %60, label %52

52:                                               ; preds = %49
  %53 = call noundef ptr @_ZNK13StackMapFrame8verifierEv(ptr noundef nonnull align 8 dereferenceable(48) %25)
  %54 = getelementptr inbounds %class.StackMapFrame, ptr %25, i32 0, i32 0
  %55 = load i32, ptr %54, align 8
  %56 = load i32, ptr %9, align 4
  call void @_ZN10TypeOrigin5localEiP13StackMapFrame(ptr dead_on_unwind writable sret(%class.TypeOrigin) align 8 %14, i32 noundef %56, ptr noundef %25)
  call void @llvm.memcpy.p0.p0.i64(ptr align 8 %16, ptr align 8 %6, i64 8, i1 false)
  %57 = getelementptr inbounds %class.VerificationType, ptr %16, i32 0, i32 0
  %58 = getelementptr inbounds %union.anon, ptr %57, i32 0, i32 0
  %59 = load ptr, ptr %58, align 8
  call void @_ZN10TypeOrigin8implicitE16VerificationType(ptr dead_on_unwind writable sret(%class.TypeOrigin) align 8 %15, ptr %59)
  call void @_ZN12ErrorContext8bad_typeEi10TypeOriginS0_(ptr dead_on_unwind writable sret(%class.ErrorContext) align 8 %13, i32 noundef %55, ptr noundef byval(%class.TypeOrigin) align 8 %14, ptr noundef byval(%class.TypeOrigin) align 8 %15)
  call void (ptr, ptr, ptr, ...) @_ZN13ClassVerifier12verify_errorE12ErrorContextPKcz(ptr noundef nonnull align 8 dereferenceable(8192) %53, ptr noundef byval(%class.ErrorContext) align 8 %13, ptr noundef @.str.7)
  br label %87

60:                                               ; preds = %49
  %61 = getelementptr inbounds %class.StackMapFrame, ptr %25, i32 0, i32 7
  %62 = load ptr, ptr %61, align 8
  %63 = load i32, ptr %9, align 4
  %64 = add nsw i32 %63, 1
  %65 = sext i32 %64 to i64
  %66 = getelementptr inbounds %class.VerificationType, ptr %62, i64 %65
  %67 = call noundef ptr @_ZNK13StackMapFrame8verifierEv(ptr noundef nonnull align 8 dereferenceable(48) %25)
  %68 = load ptr, ptr %10, align 8
  %69 = call noundef zeroext i1 @_ZNK16VerificationType18is_assignable_fromERKS_P13ClassVerifierbP10JavaThread(ptr noundef nonnull align 8 dereferenceable(8) %7, ptr noundef nonnull align 8 dereferenceable(8) %66, ptr noundef %67, i1 noundef zeroext false, ptr noundef %68)
  %70 = zext i1 %69 to i8
  store i8 %70, ptr %12, align 1
  %71 = load ptr, ptr %10, align 8
  %72 = call noundef zeroext i1 @_ZNK12ThreadShadow21has_pending_exceptionEv(ptr noundef nonnull align 8 dereferenceable(28) %71)
  br i1 %72, label %73, label %74

73:                                               ; preds = %60
  br label %87

74:                                               ; preds = %60
  %75 = load i8, ptr %12, align 1
  %76 = trunc i8 %75 to i1
  br i1 %76, label %86, label %77

77:                                               ; preds = %74
  %78 = call noundef ptr @_ZNK13StackMapFrame8verifierEv(ptr noundef nonnull align 8 dereferenceable(48) %25)
  %79 = getelementptr inbounds %class.StackMapFrame, ptr %25, i32 0, i32 0
  %80 = load i32, ptr %79, align 8
  %81 = load i32, ptr %9, align 4
  %82 = add nsw i32 %81, 1
  call void @_ZN10TypeOrigin5localEiP13StackMapFrame(ptr dead_on_unwind writable sret(%class.TypeOrigin) align 8 %18, i32 noundef %82, ptr noundef %25)
  call void @llvm.memcpy.p0.p0.i64(ptr align 8 %20, ptr align 8 %7, i64 8, i1 false)
  %83 = getelementptr inbounds %class.VerificationType, ptr %20, i32 0, i32 0
  %84 = getelementptr inbounds %union.anon, ptr %83, i32 0, i32 0
  %85 = load ptr, ptr %84, align 8
  call void @_ZN10TypeOrigin8implicitE16VerificationType(ptr dead_on_unwind writable sret(%class.TypeOrigin) align 8 %19, ptr %85)
  call void @_ZN12ErrorContext8bad_typeEi10TypeOriginS0_(ptr dead_on_unwind writable sret(%class.ErrorContext) align 8 %17, i32 noundef %80, ptr noundef byval(%class.TypeOrigin) align 8 %18, ptr noundef byval(%class.TypeOrigin) align 8 %19)
  call void (ptr, ptr, ptr, ...) @_ZN13ClassVerifier12verify_errorE12ErrorContextPKcz(ptr noundef nonnull align 8 dereferenceable(8192) %78, ptr noundef byval(%class.ErrorContext) align 8 %17, ptr noundef @.str.7)
  br label %86

86:                                               ; preds = %77, %74
  br label %87

87:                                               ; preds = %86, %73, %52, %48, %31
  ret void
}