; Function Attrs: mustprogress nounwind uwtable
define hidden void @_ZN13StackMapFrame11get_local_2Ei16VerificationTypeS0_P10JavaThread(ptr noundef nonnull align 8 dereferenceable(48) %0, i32 noundef %1, ptr %2, ptr %3, ptr noundef %4) local_unnamed_addr #0 align 2 {
  %6 = alloca %class.VerificationType, align 8
  %7 = alloca %class.VerificationType, align 8
  %8 = alloca %class.ErrorContext, align 8
  %9 = alloca %class.ErrorContext, align 8
  %10 = alloca %class.TypeOrigin, align 8
  %11 = alloca %class.TypeOrigin, align 8
  %12 = alloca %class.ErrorContext, align 8
  %13 = alloca %class.TypeOrigin, align 8
  %14 = alloca %class.TypeOrigin, align 8
  store ptr %2, ptr %6, align 8
  store ptr %3, ptr %7, align 8
  %15 = getelementptr inbounds i8, ptr %0, i64 4
  %16 = load i32, ptr %15, align 4
  %17 = add nsw i32 %16, -1
  %.not = icmp sgt i32 %17, %1
  br i1 %.not, label %28, label %18

18:                                               ; preds = %5
  %19 = getelementptr inbounds i8, ptr %0, i64 40
  %20 = load ptr, ptr %19, align 8
  %21 = load i32, ptr %0, align 8
  %22 = getelementptr inbounds i8, ptr %8, i64 8
  call void @_ZN10TypeOrigin9bad_indexEi(ptr dead_on_unwind nonnull writable sret(%class.TypeOrigin) align 8 %22, i32 noundef %1) #12
  store i32 %21, ptr %8, align 8, !alias.scope !39
  %23 = getelementptr inbounds i8, ptr %8, i64 4
  store i32 4, ptr %23, align 4, !alias.scope !39
  %24 = getelementptr inbounds i8, ptr %8, i64 32
  store i32 9, ptr %24, align 8, !alias.scope !39
  %25 = getelementptr inbounds i8, ptr %8, i64 36
  store i32 0, ptr %25, align 4, !alias.scope !39
  %26 = getelementptr inbounds i8, ptr %8, i64 40
  store ptr null, ptr %26, align 8, !alias.scope !39
  %27 = getelementptr inbounds i8, ptr %8, i64 48
  store ptr inttoptr (i64 4294901761 to ptr), ptr %27, align 8, !alias.scope !39
  call void (ptr, ptr, ptr, ...) @_ZN13ClassVerifier12verify_errorE12ErrorContextPKcz(ptr noundef nonnull align 8 dereferenceable(8192) %20, ptr noundef nonnull byval(%class.ErrorContext) align 8 %8, ptr noundef nonnull @.str.8) #12
  br label %60

28:                                               ; preds = %5
  %29 = getelementptr inbounds i8, ptr %0, i64 24
  %30 = load ptr, ptr %29, align 8
  %31 = sext i32 %1 to i64
  %32 = getelementptr inbounds %class.VerificationType, ptr %30, i64 %31
  %33 = getelementptr inbounds i8, ptr %0, i64 40
  %34 = load ptr, ptr %33, align 8
  %35 = call noundef zeroext i1 @_ZNK16VerificationType18is_assignable_fromERKS_P13ClassVerifierbP10JavaThread(ptr noundef nonnull align 8 dereferenceable(8) %6, ptr noundef nonnull align 8 dereferenceable(8) %32, ptr noundef %34, i1 noundef zeroext false, ptr noundef %4)
  %36 = getelementptr inbounds i8, ptr %4, i64 8
  %37 = load ptr, ptr %36, align 8
  %.not13 = icmp eq ptr %37, null
  br i1 %.not13, label %38, label %60

38:                                               ; preds = %28
  br i1 %35, label %45, label %39

39:                                               ; preds = %38
  %40 = load ptr, ptr %33, align 8
  %41 = load i32, ptr %0, align 8
  call void @_ZN10TypeOrigin5localEiP13StackMapFrame(ptr dead_on_unwind nonnull writable sret(%class.TypeOrigin) align 8 %10, i32 noundef %1, ptr noundef nonnull %0) #12
  %.sroa.01.0.copyload = load ptr, ptr %6, align 8
  call void @_ZN10TypeOrigin8implicitE16VerificationType(ptr dead_on_unwind nonnull writable sret(%class.TypeOrigin) align 8 %11, ptr %.sroa.01.0.copyload) #12
  %42 = getelementptr inbounds i8, ptr %9, i64 32
  call void @llvm.memcpy.p0.p0.i64(ptr noundef nonnull align 8 dereferenceable(24) %42, ptr noundef nonnull align 8 dereferenceable(24) %11, i64 24, i1 false)
  %43 = getelementptr inbounds i8, ptr %9, i64 8
  call void @llvm.memcpy.p0.p0.i64(ptr noundef nonnull align 8 dereferenceable(24) %43, ptr noundef nonnull align 8 dereferenceable(24) %10, i64 24, i1 false)
  store i32 %41, ptr %9, align 8, !alias.scope !42
  %44 = getelementptr inbounds i8, ptr %9, i64 4
  store i32 1, ptr %44, align 4, !alias.scope !42
  call void (ptr, ptr, ptr, ...) @_ZN13ClassVerifier12verify_errorE12ErrorContextPKcz(ptr noundef nonnull align 8 dereferenceable(8192) %40, ptr noundef nonnull byval(%class.ErrorContext) align 8 %9, ptr noundef nonnull @.str.7) #12
  br label %60

45:                                               ; preds = %38
  %46 = load ptr, ptr %29, align 8
  %47 = add nsw i32 %1, 1
  %48 = sext i32 %47 to i64
  %49 = getelementptr inbounds %class.VerificationType, ptr %46, i64 %48
  %50 = load ptr, ptr %33, align 8
  %51 = call noundef zeroext i1 @_ZNK16VerificationType18is_assignable_fromERKS_P13ClassVerifierbP10JavaThread(ptr noundef nonnull align 8 dereferenceable(8) %7, ptr noundef nonnull align 8 dereferenceable(8) %49, ptr noundef %50, i1 noundef zeroext false, ptr noundef nonnull %4)
  %52 = load ptr, ptr %36, align 8
  %53 = icmp ne ptr %52, null
  %brmerge = or i1 %51, %53
  br i1 %brmerge, label %60, label %54

54:                                               ; preds = %45
  %55 = load ptr, ptr %33, align 8
  %56 = load i32, ptr %0, align 8
  call void @_ZN10TypeOrigin5localEiP13StackMapFrame(ptr dead_on_unwind nonnull writable sret(%class.TypeOrigin) align 8 %13, i32 noundef %47, ptr noundef nonnull %0) #12
  %.sroa.0.0.copyload = load ptr, ptr %7, align 8
  call void @_ZN10TypeOrigin8implicitE16VerificationType(ptr dead_on_unwind nonnull writable sret(%class.TypeOrigin) align 8 %14, ptr %.sroa.0.0.copyload) #12
  %57 = getelementptr inbounds i8, ptr %12, i64 32
  call void @llvm.memcpy.p0.p0.i64(ptr noundef nonnull align 8 dereferenceable(24) %57, ptr noundef nonnull align 8 dereferenceable(24) %14, i64 24, i1 false)
  %58 = getelementptr inbounds i8, ptr %12, i64 8
  call void @llvm.memcpy.p0.p0.i64(ptr noundef nonnull align 8 dereferenceable(24) %58, ptr noundef nonnull align 8 dereferenceable(24) %13, i64 24, i1 false)
  store i32 %56, ptr %12, align 8, !alias.scope !45
  %59 = getelementptr inbounds i8, ptr %12, i64 4
  store i32 1, ptr %59, align 4, !alias.scope !45
  call void (ptr, ptr, ptr, ...) @_ZN13ClassVerifier12verify_errorE12ErrorContextPKcz(ptr noundef nonnull align 8 dereferenceable(8192) %55, ptr noundef nonnull byval(%class.ErrorContext) align 8 %12, ptr noundef nonnull @.str.7) #12
  br label %60

60:                                               ; preds = %45, %54, %28, %39, %18
  ret void
}